; Function Attrs: mustprogress nofree norecurse nosync nounwind memory(readwrite, inaccessiblemem: none) uwtable
define hidden noundef zeroext i1 @_ZN4cvc58internal6theory11quantifiers23TermTupleEnumeratorBase18nextCombinationSumEv(ptr noundef nonnull readonly align 8 captures(none) dereferenceable(168) %0) local_unnamed_addr #7 align 2 {
  %2 = getelementptr inbounds nuw i8, ptr %0, i64 80
  %3 = getelementptr inbounds nuw i8, ptr %0, i64 88
  %4 = load ptr, ptr %3, align 8, !tbaa !52
  %5 = load ptr, ptr %2, align 8, !tbaa !55
  %6 = ptrtoint ptr %4 to i64
  %7 = ptrtoint ptr %5 to i64
  %8 = sub i64 %6, %7
  %9 = ashr exact i64 %8, 3
  %.not52.not = icmp eq ptr %4, %5
  br i1 %.not52.not, label %.critedge, label %.lr.ph

.lr.ph:                                           ; preds = %1
  %10 = getelementptr inbounds nuw i8, ptr %0, i64 56
  %11 = load ptr, ptr %10, align 8
  %12 = getelementptr inbounds nuw i8, ptr %0, i64 160
  br label %13

13:                                               ; preds = %.lr.ph, %.thread
  %.in = phi i64 [ %9, %.lr.ph ], [ %14, %.thread ]
  %.03453 = phi i64 [ 0, %.lr.ph ], [ %24, %.thread ]
  %14 = add i64 %.in, -1
  %15 = getelementptr inbounds nuw i64, ptr %5, i64 %14
  %16 = load i64, ptr %15, align 8, !tbaa !54
  %.not22 = icmp eq i64 %.03453, 0
  br i1 %.not22, label %.thread, label %17

17:                                               ; preds = %13
  %18 = add i64 %16, 1
  %19 = getelementptr inbounds nuw i64, ptr %11, i64 %14
  %20 = load i64, ptr %19, align 8, !tbaa !54
  %21 = icmp ult i64 %18, %20
  %22 = load i64, ptr %12, align 8
  %23 = icmp ult i64 %14, %22
  %or.cond = select i1 %21, i1 %23, i1 false
  br i1 %or.cond, label %25, label %.thread

.thread:                                          ; preds = %13, %17
  %24 = add i64 %16, %.03453
  store i64 0, ptr %15, align 8, !tbaa !54
  %.not.not = icmp eq i64 %14, 0
  br i1 %.not.not, label %.critedge, label %13

25:                                               ; preds = %17
  store i64 %18, ptr %15, align 8, !tbaa !54
  %26 = add i64 %.03453, -1
  %.not2355 = icmp eq i64 %26, 0
  br i1 %.not2355, label %.critedge, label %.lr.ph58

.lr.ph58:                                         ; preds = %25, %.lr.ph58
  %.057 = phi i64 [ %27, %.lr.ph58 ], [ %9, %25 ]
  %.356 = phi i64 [ %31, %.lr.ph58 ], [ %26, %25 ]
  %27 = add i64 %.057, -1
  %28 = getelementptr inbounds nuw i64, ptr %11, i64 %27
  %29 = load i64, ptr %28, align 8, !tbaa !54
  %spec.select = tail call i64 @llvm.usub.sat.i64(i64 %29, i64 1)
  %.sroa.speculated = tail call i64 @llvm.umin.i64(i64 %spec.select, i64 %.356)
  %30 = getelementptr inbounds nuw i64, ptr %5, i64 %27
  store i64 %.sroa.speculated, ptr %30, align 8, !tbaa !54
  %31 = sub i64 %.356, %.sroa.speculated
  %.not23 = icmp eq i64 %31, 0
  %.not24 = icmp eq i64 %27, 0
  %or.cond46 = or i1 %.not23, %.not24
  br i1 %or.cond46, label %.critedge, label %.lr.ph58, !llvm.loop !70

.critedge:                                        ; preds = %.thread, %.lr.ph58, %1, %25
  %.not49 = phi i1 [ true, %25 ], [ false, %1 ], [ true, %.lr.ph58 ], [ false, %.thread ]
  ret i1 %.not49
}